; Function Attrs: mustprogress nounwind uwtable
define internal void @_ZN4absl13cord_internal12_GLOBAL__N_124CordzHandleDeleteTrackerD2Ev(ptr noundef nonnull align 8 dereferenceable(40) %this) unnamed_addr #7 align 2 {
entry:
  store ptr getelementptr inbounds ({ [4 x ptr] }, ptr @_ZTVN4absl13cord_internal12_GLOBAL__N_124CordzHandleDeleteTrackerE, i64 0, i32 0, i64 2), ptr %this, align 8
  %deleted = getelementptr inbounds i8, ptr %this, i64 32
  %0 = load ptr, ptr %deleted, align 8
  store i8 1, ptr %0, align 1
  tail call void @_ZN4absl13cord_internal11CordzHandleD2Ev(ptr noundef nonnull align 8 dereferenceable(32) %this) #18
  ret void
}